target datalayout = "e-m:e-p270:32:32-p271:32:32-p272:64:64-i64:64-i128:128-f80:128-n8:16:32:64-S128"
target triple = "x86_64-pc-linux-gnu"

@apos = internal global ptr @.str.98, align 8
@lt = internal global ptr @.str.99, align 8
@gt = internal global ptr @.str.100, align 8
@amp = internal global ptr @.str.101, align 8

; Function Attrs: nounwind uwtable
define internal ptr @xml_escape_the_string(ptr noundef %0, i32 noundef %1) #0 {
  %3 = alloca ptr, align 8
  %4 = alloca ptr, align 8
  %5 = alloca i32, align 4
  %6 = alloca i64, align 8
  %7 = alloca i64, align 8
  %8 = alloca i64, align 8
  %9 = alloca ptr, align 8
  %10 = alloca ptr, align 8
  %11 = alloca ptr, align 8
  %12 = alloca i64, align 8
  %13 = alloca i32, align 4
  %14 = alloca i64, align 8
  store ptr %0, ptr %4, align 8, !tbaa !21
  store i32 %1, ptr %5, align 4, !tbaa !11
  call void @llvm.lifetime.start.p0(i64 8, ptr %6) #9
  call void @llvm.lifetime.start.p0(i64 8, ptr %7) #9
  call void @llvm.lifetime.start.p0(i64 8, ptr %8) #9
  call void @llvm.lifetime.start.p0(i64 8, ptr %9) #9
  store ptr null, ptr %9, align 8, !tbaa !21
  call void @llvm.lifetime.start.p0(i64 8, ptr %10) #9
  store ptr null, ptr %10, align 8, !tbaa !21
  call void @llvm.lifetime.start.p0(i64 8, ptr %11) #9
  store ptr null, ptr %11, align 8, !tbaa !21
  call void @llvm.lifetime.start.p0(i64 8, ptr %12) #9
  %15 = load ptr, ptr %4, align 8, !tbaa !21
  %16 = icmp ne ptr %15, null
  br i1 %16, label %18, label %17

17:                                               ; preds = %2
  store ptr null, ptr %3, align 8
  store i32 1, ptr %13, align 4
  br label %218

18:                                               ; preds = %2
  %19 = load ptr, ptr %4, align 8, !tbaa !21
  store ptr %19, ptr %9, align 8, !tbaa !21
  %20 = load i32, ptr %5, align 4, !tbaa !11
  %21 = icmp slt i32 %20, 0
  br i1 %21, label %22, label %25

22:                                               ; preds = %18
  %23 = load ptr, ptr %4, align 8, !tbaa !21
  %24 = call i64 @strlen(ptr noundef %23) #11
  store i64 %24, ptr %7, align 8, !tbaa !4
  br label %28

25:                                               ; preds = %18
  %26 = load i32, ptr %5, align 4, !tbaa !11
  %27 = sext i32 %26 to i64
  store i64 %27, ptr %7, align 8, !tbaa !4
  br label %28

28:                                               ; preds = %25, %22
  store i64 0, ptr %6, align 8, !tbaa !4
  store i64 0, ptr %8, align 8, !tbaa !4
  br label %29

29:                                               ; preds = %101, %28
  %30 = load i64, ptr %8, align 8, !tbaa !4
  %31 = load i64, ptr %7, align 8, !tbaa !4
  %32 = icmp ult i64 %30, %31
  br i1 %32, label %33, label %104

33:                                               ; preds = %29
  %34 = load ptr, ptr %9, align 8, !tbaa !21
  %35 = load i8, ptr %34, align 1, !tbaa !48
  %36 = sext i8 %35 to i32
  %37 = icmp eq i32 %36, 92
  br i1 %37, label %38, label %41

38:                                               ; preds = %33
  %39 = load i64, ptr %6, align 8, !tbaa !4
  %40 = add i64 %39, 1
  store i64 %40, ptr %6, align 8, !tbaa !4
  br label %98

41:                                               ; preds = %33
  %42 = load ptr, ptr %9, align 8, !tbaa !21
  %43 = load i8, ptr %42, align 1, !tbaa !48
  %44 = sext i8 %43 to i32
  %45 = icmp eq i32 %44, 34
  br i1 %45, label %46, label %49

46:                                               ; preds = %41
  %47 = load i64, ptr %6, align 8, !tbaa !4
  %48 = add i64 %47, 1
  store i64 %48, ptr %6, align 8, !tbaa !4
  br label %97

49:                                               ; preds = %41
  %50 = load ptr, ptr %9, align 8, !tbaa !21
  %51 = load i8, ptr %50, align 1, !tbaa !48
  %52 = sext i8 %51 to i32
  %53 = icmp eq i32 %52, 39
  br i1 %53, label %54, label %60

54:                                               ; preds = %49
  %55 = load ptr, ptr @apos, align 8, !tbaa !21
  %56 = call i64 @strlen(ptr noundef %55) #11
  %57 = sub i64 %56, 1
  %58 = load i64, ptr %6, align 8, !tbaa !4
  %59 = add i64 %58, %57
  store i64 %59, ptr %6, align 8, !tbaa !4
  br label %96

60:                                               ; preds = %49
  %61 = load ptr, ptr %9, align 8, !tbaa !21
  %62 = load i8, ptr %61, align 1, !tbaa !48
  %63 = sext i8 %62 to i32
  %64 = icmp eq i32 %63, 60
  br i1 %64, label %65, label %71

65:                                               ; preds = %60
  %66 = load ptr, ptr @lt, align 8, !tbaa !21
  %67 = call i64 @strlen(ptr noundef %66) #11
  %68 = sub i64 %67, 1
  %69 = load i64, ptr %6, align 8, !tbaa !4
  %70 = add i64 %69, %68
  store i64 %70, ptr %6, align 8, !tbaa !4
  br label %95

71:                                               ; preds = %60
  %72 = load ptr, ptr %9, align 8, !tbaa !21
  %73 = load i8, ptr %72, align 1, !tbaa !48
  %74 = sext i8 %73 to i32
  %75 = icmp eq i32 %74, 62
  br i1 %75, label %76, label %82

76:                                               ; preds = %71
  %77 = load ptr, ptr @gt, align 8, !tbaa !21
  %78 = call i64 @strlen(ptr noundef %77) #11
  %79 = sub i64 %78, 1
  %80 = load i64, ptr %6, align 8, !tbaa !4
  %81 = add i64 %80, %79
  store i64 %81, ptr %6, align 8, !tbaa !4
  br label %94

82:                                               ; preds = %71
  %83 = load ptr, ptr %9, align 8, !tbaa !21
  %84 = load i8, ptr %83, align 1, !tbaa !48
  %85 = sext i8 %84 to i32
  %86 = icmp eq i32 %85, 38
  br i1 %86, label %87, label %93

87:                                               ; preds = %82
  %88 = load ptr, ptr @amp, align 8, !tbaa !21
  %89 = call i64 @strlen(ptr noundef %88) #11
  %90 = sub i64 %89, 1
  %91 = load i64, ptr %6, align 8, !tbaa !4
  %92 = add i64 %91, %90
  store i64 %92, ptr %6, align 8, !tbaa !4
  br label %93

93:                                               ; preds = %87, %82
  br label %94

94:                                               ; preds = %93, %76
  br label %95

95:                                               ; preds = %94, %65
  br label %96

96:                                               ; preds = %95, %54
  br label %97

97:                                               ; preds = %96, %46
  br label %98

98:                                               ; preds = %97, %38
  %99 = load ptr, ptr %9, align 8, !tbaa !21
  %100 = getelementptr inbounds nuw i8, ptr %99, i32 1
  store ptr %100, ptr %9, align 8, !tbaa !21
  br label %101

101:                                              ; preds = %98
  %102 = load i64, ptr %8, align 8, !tbaa !4
  %103 = add i64 %102, 1
  store i64 %103, ptr %8, align 8, !tbaa !4
  br label %29, !llvm.loop !114

104:                                              ; preds = %29
  %105 = load ptr, ptr %4, align 8, !tbaa !21
  store ptr %105, ptr %9, align 8, !tbaa !21
  %106 = load i64, ptr %7, align 8, !tbaa !4
  %107 = load i64, ptr %6, align 8, !tbaa !4
  %108 = add i64 %106, %107
  %109 = add i64 %108, 1
  store i64 %109, ptr %12, align 8, !tbaa !4
  %110 = load i64, ptr %12, align 8, !tbaa !4
  %111 = call noalias ptr @calloc(i64 noundef %110, i64 noundef 1) #12
  store ptr %111, ptr %10, align 8, !tbaa !21
  store ptr %111, ptr %11, align 8, !tbaa !21
  %112 = load ptr, ptr %10, align 8, !tbaa !21
  %113 = icmp eq ptr %112, null
  br i1 %113, label %114, label %115

114:                                              ; preds = %104
  store ptr null, ptr %3, align 8
  store i32 1, ptr %13, align 4
  br label %218

115:                                              ; preds = %104
  store i64 0, ptr %8, align 8, !tbaa !4
  br label %116

116:                                              ; preds = %212, %115
  %117 = load i64, ptr %8, align 8, !tbaa !4
  %118 = load i64, ptr %7, align 8, !tbaa !4
  %119 = icmp ult i64 %117, %118
  br i1 %119, label %120, label %215

120:                                              ; preds = %116
  call void @llvm.lifetime.start.p0(i64 8, ptr %14) #9
  %121 = load ptr, ptr %9, align 8, !tbaa !21
  %122 = load i8, ptr %121, align 1, !tbaa !48
  %123 = sext i8 %122 to i32
  %124 = icmp eq i32 %123, 92
  br i1 %124, label %125, label %133

125:                                              ; preds = %120
  %126 = load ptr, ptr %10, align 8, !tbaa !21
  %127 = getelementptr inbounds nuw i8, ptr %126, i32 1
  store ptr %127, ptr %10, align 8, !tbaa !21
  store i8 92, ptr %126, align 1, !tbaa !48
  %128 = load i64, ptr %12, align 8, !tbaa !4
  %129 = add i64 %128, -1
  store i64 %129, ptr %12, align 8, !tbaa !4
  %130 = load ptr, ptr %9, align 8, !tbaa !21
  %131 = load i8, ptr %130, align 1, !tbaa !48
  %132 = load ptr, ptr %10, align 8, !tbaa !21
  store i8 %131, ptr %132, align 1, !tbaa !48
  store i64 1, ptr %14, align 8, !tbaa !4
  br label %203

133:                                              ; preds = %120
  %134 = load ptr, ptr %9, align 8, !tbaa !21
  %135 = load i8, ptr %134, align 1, !tbaa !48
  %136 = sext i8 %135 to i32
  %137 = icmp eq i32 %136, 34
  br i1 %137, label %138, label %146

138:                                              ; preds = %133
  %139 = load ptr, ptr %10, align 8, !tbaa !21
  %140 = getelementptr inbounds nuw i8, ptr %139, i32 1
  store ptr %140, ptr %10, align 8, !tbaa !21
  store i8 92, ptr %139, align 1, !tbaa !48
  %141 = load i64, ptr %12, align 8, !tbaa !4
  %142 = add i64 %141, -1
  store i64 %142, ptr %12, align 8, !tbaa !4
  %143 = load ptr, ptr %9, align 8, !tbaa !21
  %144 = load i8, ptr %143, align 1, !tbaa !48
  %145 = load ptr, ptr %10, align 8, !tbaa !21
  store i8 %144, ptr %145, align 1, !tbaa !48
  store i64 1, ptr %14, align 8, !tbaa !4
  br label %202

146:                                              ; preds = %133
  %147 = load ptr, ptr %9, align 8, !tbaa !21
  %148 = load i8, ptr %147, align 1, !tbaa !48
  %149 = sext i8 %148 to i32
  %150 = icmp eq i32 %149, 39
  br i1 %150, label %151, label %158

151:                                              ; preds = %146
  %152 = load ptr, ptr %10, align 8, !tbaa !21
  %153 = load ptr, ptr @apos, align 8, !tbaa !21
  %154 = load i64, ptr %12, align 8, !tbaa !4
  %155 = call ptr @strncpy(ptr noundef %152, ptr noundef %153, i64 noundef %154) #9
  %156 = load ptr, ptr @apos, align 8, !tbaa !21
  %157 = call i64 @strlen(ptr noundef %156) #11
  store i64 %157, ptr %14, align 8, !tbaa !4
  br label %201

158:                                              ; preds = %146
  %159 = load ptr, ptr %9, align 8, !tbaa !21
  %160 = load i8, ptr %159, align 1, !tbaa !48
  %161 = sext i8 %160 to i32
  %162 = icmp eq i32 %161, 60
  br i1 %162, label %163, label %170

163:                                              ; preds = %158
  %164 = load ptr, ptr %10, align 8, !tbaa !21
  %165 = load ptr, ptr @lt, align 8, !tbaa !21
  %166 = load i64, ptr %12, align 8, !tbaa !4
  %167 = call ptr @strncpy(ptr noundef %164, ptr noundef %165, i64 noundef %166) #9
  %168 = load ptr, ptr @lt, align 8, !tbaa !21
  %169 = call i64 @strlen(ptr noundef %168) #11
  store i64 %169, ptr %14, align 8, !tbaa !4
  br label %200

170:                                              ; preds = %158
  %171 = load ptr, ptr %9, align 8, !tbaa !21
  %172 = load i8, ptr %171, align 1, !tbaa !48
  %173 = sext i8 %172 to i32
  %174 = icmp eq i32 %173, 62
  br i1 %174, label %175, label %182

175:                                              ; preds = %170
  %176 = load ptr, ptr %10, align 8, !tbaa !21
  %177 = load ptr, ptr @gt, align 8, !tbaa !21
  %178 = load i64, ptr %12, align 8, !tbaa !4
  %179 = call ptr @strncpy(ptr noundef %176, ptr noundef %177, i64 noundef %178) #9
  %180 = load ptr, ptr @gt, align 8, !tbaa !21
  %181 = call i64 @strlen(ptr noundef %180) #11
  store i64 %181, ptr %14, align 8, !tbaa !4
  br label %199

182:                                              ; preds = %170
  %183 = load ptr, ptr %9, align 8, !tbaa !21
  %184 = load i8, ptr %183, align 1, !tbaa !48
  %185 = sext i8 %184 to i32
  %186 = icmp eq i32 %185, 38
  br i1 %186, label %187, label %194

187:                                              ; preds = %182
  %188 = load ptr, ptr %10, align 8, !tbaa !21
  %189 = load ptr, ptr @amp, align 8, !tbaa !21
  %190 = load i64, ptr %12, align 8, !tbaa !4
  %191 = call ptr @strncpy(ptr noundef %188, ptr noundef %189, i64 noundef %190) #9
  %192 = load ptr, ptr @amp, align 8, !tbaa !21
  %193 = call i64 @strlen(ptr noundef %192) #11
  store i64 %193, ptr %14, align 8, !tbaa !4
  br label %198

194:                                              ; preds = %182
  %195 = load ptr, ptr %9, align 8, !tbaa !21
  %196 = load i8, ptr %195, align 1, !tbaa !48
  %197 = load ptr, ptr %10, align 8, !tbaa !21
  store i8 %196, ptr %197, align 1, !tbaa !48
  store i64 1, ptr %14, align 8, !tbaa !4
  br label %198

198:                                              ; preds = %194, %187
  br label %199

199:                                              ; preds = %198, %175
  br label %200

200:                                              ; preds = %199, %163
  br label %201

201:                                              ; preds = %200, %151
  br label %202

202:                                              ; preds = %201, %138
  br label %203

203:                                              ; preds = %202, %125
  %204 = load i64, ptr %14, align 8, !tbaa !4
  %205 = load ptr, ptr %10, align 8, !tbaa !21
  %206 = getelementptr inbounds nuw i8, ptr %205, i64 %204
  store ptr %206, ptr %10, align 8, !tbaa !21
  %207 = load i64, ptr %14, align 8, !tbaa !4
  %208 = load i64, ptr %12, align 8, !tbaa !4
  %209 = sub i64 %208, %207
  store i64 %209, ptr %12, align 8, !tbaa !4
  %210 = load ptr, ptr %9, align 8, !tbaa !21
  %211 = getelementptr inbounds nuw i8, ptr %210, i32 1
  store ptr %211, ptr %9, align 8, !tbaa !21
  call void @llvm.lifetime.end.p0(i64 8, ptr %14) #9
  br label %212

212:                                              ; preds = %203
  %213 = load i64, ptr %8, align 8, !tbaa !4
  %214 = add i64 %213, 1
  store i64 %214, ptr %8, align 8, !tbaa !4
  br label %116, !llvm.loop !115

215:                                              ; preds = %116
  %216 = load ptr, ptr %10, align 8, !tbaa !21
  store i8 0, ptr %216, align 1, !tbaa !48
  %217 = load ptr, ptr %11, align 8, !tbaa !21
  store ptr %217, ptr %3, align 8
  store i32 1, ptr %13, align 4
  br label %218

218:                                              ; preds = %215, %114, %17
  call void @llvm.lifetime.end.p0(i64 8, ptr %12) #9
  call void @llvm.lifetime.end.p0(i64 8, ptr %11) #9
  call void @llvm.lifetime.end.p0(i64 8, ptr %10) #9
  call void @llvm.lifetime.end.p0(i64 8, ptr %9) #9
  call void @llvm.lifetime.end.p0(i64 8, ptr %8) #9
  call void @llvm.lifetime.end.p0(i64 8, ptr %7) #9
  call void @llvm.lifetime.end.p0(i64 8, ptr %6) #9
  %219 = load ptr, ptr %3, align 8
  ret ptr %219
}