; Function Attrs: nofree nounwind memory(readwrite, argmem: read) uwtable
define internal fastcc noundef ptr @xml_escape_the_string(ptr noundef nonnull readonly captures(none) %0, i32 noundef %1) unnamed_addr #13 {
  %3 = icmp slt i32 %1, 0
  br i1 %3, label %4, label %6

4:                                                ; preds = %2
  %5 = tail call i64 @strlen(ptr noundef nonnull dereferenceable(1) %0) #16
  br label %8

6:                                                ; preds = %2
  %7 = zext nneg i32 %1 to i64
  br label %8

8:                                                ; preds = %6, %4
  %.067 = phi i64 [ %5, %4 ], [ %7, %6 ]
  %.not = icmp eq i64 %.067, 0
  br i1 %.not, label %._crit_edge, label %.lr.ph

.lr.ph:                                           ; preds = %8, %22
  %.06378 = phi ptr [ %23, %22 ], [ %0, %8 ]
  %.06577 = phi i64 [ %24, %22 ], [ 0, %8 ]
  %.06876 = phi i64 [ %.169, %22 ], [ 0, %8 ]
  %9 = load i8, ptr %.06378, align 1, !tbaa !44
  switch i8 %9, label %22 [
    i8 92, label %10
    i8 34, label %12
    i8 39, label %14
    i8 60, label %16
    i8 62, label %18
    i8 38, label %20
  ]

10:                                               ; preds = %.lr.ph
  %11 = add i64 %.06876, 1
  br label %22

12:                                               ; preds = %.lr.ph
  %13 = add i64 %.06876, 1
  br label %22

14:                                               ; preds = %.lr.ph
  %15 = add i64 %.06876, 5
  br label %22

16:                                               ; preds = %.lr.ph
  %17 = add i64 %.06876, 3
  br label %22

18:                                               ; preds = %.lr.ph
  %19 = add i64 %.06876, 3
  br label %22

20:                                               ; preds = %.lr.ph
  %21 = add i64 %.06876, 4
  br label %22

22:                                               ; preds = %.lr.ph, %12, %16, %20, %18, %14, %10
  %.169 = phi i64 [ %11, %10 ], [ %13, %12 ], [ %15, %14 ], [ %17, %16 ], [ %19, %18 ], [ %21, %20 ], [ %.06876, %.lr.ph ]
  %23 = getelementptr inbounds nuw i8, ptr %.06378, i64 1
  %24 = add nuw i64 %.06577, 1
  %exitcond.not = icmp eq i64 %24, %.067
  br i1 %exitcond.not, label %._crit_edge, label %.lr.ph, !llvm.loop !100

._crit_edge:                                      ; preds = %22, %8
  %.068.lcssa = phi i64 [ 0, %8 ], [ %.169, %22 ]
  %25 = add i64 %.067, 1
  %26 = add i64 %25, %.068.lcssa
  %27 = tail call noalias ptr @calloc(i64 noundef %26, i64 noundef 1) #17
  %28 = icmp eq ptr %27, null
  br i1 %28, label %52, label %.preheader

.preheader:                                       ; preds = %._crit_edge
  br i1 %.not, label %._crit_edge84, label %.lr.ph83

.lr.ph83:                                         ; preds = %.preheader, %47
  %.06082 = phi i64 [ %49, %47 ], [ %26, %.preheader ]
  %.06181 = phi ptr [ %48, %47 ], [ %27, %.preheader ]
  %.16480 = phi ptr [ %50, %47 ], [ %0, %.preheader ]
  %.16679 = phi i64 [ %51, %47 ], [ 0, %.preheader ]
  %29 = load i8, ptr %.16480, align 1, !tbaa !44
  switch i8 %29, label %46 [
    i8 92, label %30
    i8 34, label %34
    i8 39, label %38
    i8 60, label %40
    i8 62, label %42
    i8 38, label %44
  ]

30:                                               ; preds = %.lr.ph83
  %31 = getelementptr inbounds nuw i8, ptr %.06181, i64 1
  store i8 92, ptr %.06181, align 1, !tbaa !44
  %32 = add i64 %.06082, -1
  %33 = load i8, ptr %.16480, align 1, !tbaa !44
  store i8 %33, ptr %31, align 1, !tbaa !44
  br label %47

34:                                               ; preds = %.lr.ph83
  %35 = getelementptr inbounds nuw i8, ptr %.06181, i64 1
  store i8 92, ptr %.06181, align 1, !tbaa !44
  %36 = add i64 %.06082, -1
  %37 = load i8, ptr %.16480, align 1, !tbaa !44
  store i8 %37, ptr %35, align 1, !tbaa !44
  br label %47

38:                                               ; preds = %.lr.ph83
  %39 = tail call ptr @strncpy(ptr noundef nonnull %.06181, ptr noundef nonnull dereferenceable(7) @.str.98, i64 noundef %.06082) #14
  br label %47

40:                                               ; preds = %.lr.ph83
  %41 = tail call ptr @strncpy(ptr noundef nonnull %.06181, ptr noundef nonnull dereferenceable(5) @.str.99, i64 noundef %.06082) #14
  br label %47

42:                                               ; preds = %.lr.ph83
  %43 = tail call ptr @strncpy(ptr noundef nonnull %.06181, ptr noundef nonnull dereferenceable(5) @.str.100, i64 noundef %.06082) #14
  br label %47

44:                                               ; preds = %.lr.ph83
  %45 = tail call ptr @strncpy(ptr noundef nonnull %.06181, ptr noundef nonnull dereferenceable(6) @.str.101, i64 noundef %.06082) #14
  br label %47

46:                                               ; preds = %.lr.ph83
  store i8 %29, ptr %.06181, align 1, !tbaa !44
  br label %47

47:                                               ; preds = %34, %40, %44, %46, %42, %38, %30
  %.162 = phi ptr [ %31, %30 ], [ %35, %34 ], [ %.06181, %38 ], [ %.06181, %40 ], [ %.06181, %42 ], [ %.06181, %44 ], [ %.06181, %46 ]
  %.1 = phi i64 [ %32, %30 ], [ %36, %34 ], [ %.06082, %38 ], [ %.06082, %40 ], [ %.06082, %42 ], [ %.06082, %44 ], [ %.06082, %46 ]
  %.0 = phi i64 [ 1, %30 ], [ 1, %34 ], [ 6, %38 ], [ 4, %40 ], [ 4, %42 ], [ 5, %44 ], [ 1, %46 ]
  %48 = getelementptr inbounds nuw i8, ptr %.162, i64 %.0
  %49 = sub i64 %.1, %.0
  %50 = getelementptr inbounds nuw i8, ptr %.16480, i64 1
  %51 = add nuw i64 %.16679, 1
  %exitcond87.not = icmp eq i64 %51, %.067
  br i1 %exitcond87.not, label %._crit_edge84, label %.lr.ph83, !llvm.loop !101

._crit_edge84:                                    ; preds = %47, %.preheader
  %.061.lcssa = phi ptr [ %27, %.preheader ], [ %48, %47 ]
  store i8 0, ptr %.061.lcssa, align 1, !tbaa !44
  br label %52

52:                                               ; preds = %._crit_edge, %._crit_edge84
  ret ptr %27
}